; Function Attrs: mustprogress nofree norecurse nosync nounwind willreturn memory(argmem: read) uwtable
define noundef zeroext i1 @_ZNK3net16SpdyFrameBuilder8CanWriteEm(ptr noundef nonnull readonly align 8 captures(none) dereferenceable(36) %0, i64 noundef %1) local_unnamed_addr #3 align 2 {
  %3 = icmp ugt i64 %1, 16777215
  br i1 %3, label %14, label %4

4:                                                ; preds = %2
  %5 = getelementptr inbounds nuw i8, ptr %0, i64 24
  %6 = load i64, ptr %5, align 8, !tbaa !19
  %7 = getelementptr inbounds nuw i8, ptr %0, i64 16
  %8 = load i64, ptr %7, align 8, !tbaa !20
  %9 = add i64 %6, %1
  %10 = add i64 %9, %8
  %11 = getelementptr inbounds nuw i8, ptr %0, i64 8
  %12 = load i64, ptr %11, align 8, !tbaa !8
  %13 = icmp ule i64 %10, %12
  br label %14

14:                                               ; preds = %4, %2
  %.0 = phi i1 [ false, %2 ], [ %13, %4 ]
  ret i1 %.0
}